target datalayout = "e-m:e-p270:32:32-p271:32:32-p272:64:64-i64:64-i128:128-f80:128-n8:16:32:64-S128"
target triple = "x86_64-pc-linux-gnu"

%struct.If_Cut_t_ = type <{ float, float, float, float, i32, i32, i32, i64, [0 x i32] }>
%struct.If_Man_t_ = type { ptr, ptr, ptr, ptr, ptr, ptr, ptr, ptr, [5 x i32], i32, float, float, float, float, i32, float, i32, i32, [4 x ptr], ptr, i32, i32, i32, ptr, [3 x [32 x i32]], i32, i32, i32, ptr, ptr, ptr, ptr, ptr, ptr, ptr, i32, i32, i32, [16 x i32], i32, i32, i32, i32, ptr, ptr, ptr, ptr, ptr, i32, i32, [32 x i32], [32 x i32], i32, i32, i32, i32, ptr, [16 x ptr], [16 x ptr], [16 x ptr], [16 x ptr], [16 x ptr], [16 x ptr], [16 x ptr], ptr, ptr, ptr, ptr, [32 x i8], i32, i32, i32, [6 x i64], [2 x i32], [2 x i32], ptr, [15 x i32], ptr, ptr, ptr, [16 x i32], ptr, ptr, ptr, ptr, [2 x i32], [2 x i32], [2 x ptr], ptr }
%struct.If_Obj_t_ = type { i32, i32, i32, i32, i32, i32, ptr, ptr, ptr, float, float, float, %union.anon, ptr, %struct.If_Cut_t_ }
%union.anon = type { ptr }
%struct.Vec_Ptr_t_ = type { i32, i32, ptr }

; Function Attrs: inlinehint nounwind uwtable
define internal ptr @Vec_PtrEntry(ptr noundef %0, i32 noundef %1) #2 {
  %3 = alloca ptr, align 8
  %4 = alloca i32, align 4
  store ptr %0, ptr %3, align 8, !tbaa !134
  store i32 %1, ptr %4, align 4, !tbaa !8
  %5 = load ptr, ptr %3, align 8, !tbaa !134
  %6 = getelementptr inbounds nuw %struct.Vec_Ptr_t_, ptr %5, i32 0, i32 2
  %7 = load ptr, ptr %6, align 8, !tbaa !137
  %8 = load i32, ptr %4, align 4, !tbaa !8
  %9 = sext i32 %8 to i64
  %10 = getelementptr inbounds ptr, ptr %7, i64 %9
  %11 = load ptr, ptr %10, align 8, !tbaa !138
  ret ptr %11
}

; Function Attrs: inlinehint nounwind uwtable
define internal ptr @If_ManObj(ptr noundef %0, i32 noundef %1) #2 {
  %3 = alloca ptr, align 8
  %4 = alloca i32, align 4
  store ptr %0, ptr %3, align 8, !tbaa !35
  store i32 %1, ptr %4, align 4, !tbaa !8
  %5 = load ptr, ptr %3, align 8, !tbaa !35
  %6 = getelementptr inbounds nuw %struct.If_Man_t_, ptr %5, i32 0, i32 5
  %7 = load ptr, ptr %6, align 8, !tbaa !104
  %8 = load i32, ptr %4, align 4, !tbaa !8
  %9 = call ptr @Vec_PtrEntry(ptr noundef %7, i32 noundef %8)
  ret ptr %9
}

; Function Attrs: nounwind uwtable
define float @If_CutAverageRefs(ptr noundef %0, ptr noundef %1) #0 {
  %3 = alloca ptr, align 8
  %4 = alloca ptr, align 8
  %5 = alloca ptr, align 8
  %6 = alloca i32, align 4
  %7 = alloca i32, align 4
  store ptr %0, ptr %3, align 8, !tbaa !35
  store ptr %1, ptr %4, align 8, !tbaa !15
  call void @llvm.lifetime.start.p0(i64 8, ptr %5) #9
  call void @llvm.lifetime.start.p0(i64 4, ptr %6) #9
  call void @llvm.lifetime.start.p0(i64 4, ptr %7) #9
  store i32 0, ptr %6, align 4, !tbaa !8
  store i32 0, ptr %7, align 4, !tbaa !8
  br label %8

8:                                                ; preds = %35, %2
  %9 = load i32, ptr %7, align 4, !tbaa !8
  %10 = load ptr, ptr %4, align 8, !tbaa !15
  %11 = getelementptr inbounds nuw %struct.If_Cut_t_, ptr %10, i32 0, i32 7
  %12 = load i64, ptr %11, align 4
  %13 = lshr i64 %12, 24
  %14 = and i64 %13, 255
  %15 = trunc i64 %14 to i32
  %16 = icmp slt i32 %9, %15
  br i1 %16, label %17, label %27

17:                                               ; preds = %8
  %18 = load ptr, ptr %3, align 8, !tbaa !35
  %19 = load ptr, ptr %4, align 8, !tbaa !15
  %20 = getelementptr inbounds nuw %struct.If_Cut_t_, ptr %19, i32 0, i32 8
  %21 = load i32, ptr %7, align 4, !tbaa !8
  %22 = sext i32 %21 to i64
  %23 = getelementptr inbounds [0 x i32], ptr %20, i64 0, i64 %22
  %24 = load i32, ptr %23, align 4, !tbaa !8
  %25 = call ptr @If_ManObj(ptr noundef %18, i32 noundef %24)
  store ptr %25, ptr %5, align 8, !tbaa !99
  %26 = icmp ne ptr %25, null
  br label %27

27:                                               ; preds = %17, %8
  %28 = phi i1 [ false, %8 ], [ %26, %17 ]
  br i1 %28, label %29, label %38

29:                                               ; preds = %27
  %30 = load ptr, ptr %5, align 8, !tbaa !99
  %31 = getelementptr inbounds nuw %struct.If_Obj_t_, ptr %30, i32 0, i32 3
  %32 = load i32, ptr %31, align 4, !tbaa !107
  %33 = load i32, ptr %6, align 4, !tbaa !8
  %34 = add nsw i32 %33, %32
  store i32 %34, ptr %6, align 4, !tbaa !8
  br label %35

35:                                               ; preds = %29
  %36 = load i32, ptr %7, align 4, !tbaa !8
  %37 = add nsw i32 %36, 1
  store i32 %37, ptr %7, align 4, !tbaa !8
  br label %8, !llvm.loop !118

38:                                               ; preds = %27
  %39 = load i32, ptr %6, align 4, !tbaa !8
  %40 = sitofp i32 %39 to float
  %41 = load ptr, ptr %4, align 8, !tbaa !15
  %42 = getelementptr inbounds nuw %struct.If_Cut_t_, ptr %41, i32 0, i32 7
  %43 = load i64, ptr %42, align 4
  %44 = lshr i64 %43, 24
  %45 = and i64 %44, 255
  %46 = trunc i64 %45 to i32
  %47 = sitofp i32 %46 to float
  %48 = fdiv float %40, %47
  call void @llvm.lifetime.end.p0(i64 4, ptr %7) #9
  call void @llvm.lifetime.end.p0(i64 4, ptr %6) #9
  call void @llvm.lifetime.end.p0(i64 8, ptr %5) #9
  ret float %48
}