; Function Attrs: nofree norecurse nosync nounwind memory(read, inaccessiblemem: none) uwtable
define float @If_CutAverageRefs(ptr noundef readonly captures(none) %0, ptr noundef readonly captures(none) %1) local_unnamed_addr #7 {
  %3 = getelementptr inbounds nuw i8, ptr %1, i64 36
  %4 = getelementptr inbounds nuw i8, ptr %1, i64 28
  %5 = load i64, ptr %4, align 4
  %6 = trunc i64 %5 to i32
  %7 = lshr i32 %6, 24
  %.not17 = icmp ult i32 %6, 16777216
  br i1 %.not17, label %.critedge, label %.lr.ph

.lr.ph:                                           ; preds = %2
  %8 = getelementptr i8, ptr %0, i64 40
  %.val = load ptr, ptr %8, align 8, !tbaa !92
  %9 = getelementptr i8, ptr %.val, i64 8
  %.val.val = load ptr, ptr %9, align 8, !tbaa !93
  %umax = tail call i32 @llvm.umax.i32(i32 %7, i32 1)
  %wide.trip.count = zext nneg i32 %umax to i64
  br label %10

10:                                               ; preds = %.lr.ph, %16
  %indvars.iv = phi i64 [ 0, %.lr.ph ], [ %indvars.iv.next, %16 ]
  %.0911 = phi i32 [ 0, %.lr.ph ], [ %19, %16 ]
  %11 = getelementptr inbounds nuw [0 x i32], ptr %3, i64 0, i64 %indvars.iv
  %12 = load i32, ptr %11, align 4, !tbaa !14
  %13 = sext i32 %12 to i64
  %14 = getelementptr inbounds ptr, ptr %.val.val, i64 %13
  %15 = load ptr, ptr %14, align 8, !tbaa !95
  %.not = icmp eq ptr %15, null
  br i1 %.not, label %.critedge.loopexit, label %16

16:                                               ; preds = %10
  %17 = getelementptr inbounds nuw i8, ptr %15, i64 12
  %18 = load i32, ptr %17, align 4, !tbaa !104
  %19 = add nsw i32 %18, %.0911
  %indvars.iv.next = add nuw nsw i64 %indvars.iv, 1
  %exitcond.not = icmp eq i64 %indvars.iv.next, %wide.trip.count
  br i1 %exitcond.not, label %.critedge.loopexit, label %10, !llvm.loop !113

.critedge.loopexit:                               ; preds = %16, %10
  %.09.lcssa.ph = phi i32 [ %.0911, %10 ], [ %19, %16 ]
  %20 = sitofp i32 %.09.lcssa.ph to float
  br label %.critedge

.critedge:                                        ; preds = %.critedge.loopexit, %2
  %.09.lcssa = phi float [ 0.000000e+00, %2 ], [ %20, %.critedge.loopexit ]
  %21 = uitofp nneg i32 %7 to float
  %22 = fdiv float %.09.lcssa, %21
  ret float %22
}